target datalayout = "e-m:e-p270:32:32-p271:32:32-p272:64:64-i64:64-i128:128-f80:128-n8:16:32:64-S128"
target triple = "x86_64-pc-linux-gnu"

%struct._ts = type { ptr, ptr, ptr, i64, %struct.anon.805, i32, i32, i32, i32, i32, i32, i32, i32, ptr, ptr, ptr, ptr, ptr, ptr, ptr, ptr, i32, ptr, i64, i64, ptr, i64, i32, ptr, ptr, ptr, i64, i64, ptr, ptr, ptr, %struct._err_stackitem, ptr, i64, ptr, ptr }
%struct.anon.805 = type { i32 }
%struct._err_stackitem = type { ptr, ptr }
%struct._stack_chunk = type { ptr, i64, i64, [1 x ptr] }

; Function Attrs: nounwind uwtable
define dso_local void @_PyThreadState_PopFrame(ptr noundef %0, ptr noundef %1) #0 {
  %3 = alloca ptr, align 8
  %4 = alloca ptr, align 8
  %5 = alloca ptr, align 8
  %6 = alloca ptr, align 8
  %7 = alloca ptr, align 8
  store ptr %0, ptr %3, align 8, !tbaa !4
  store ptr %1, ptr %4, align 8, !tbaa !290
  call void @llvm.lifetime.start.p0(i64 8, ptr %5) #10
  %8 = load ptr, ptr %4, align 8, !tbaa !290
  store ptr %8, ptr %5, align 8, !tbaa !232
  %9 = load ptr, ptr %5, align 8, !tbaa !232
  %10 = load ptr, ptr %3, align 8, !tbaa !4
  %11 = getelementptr inbounds nuw %struct._ts, ptr %10, i32 0, i32 33
  %12 = load ptr, ptr %11, align 8, !tbaa !321
  %13 = getelementptr inbounds nuw %struct._stack_chunk, ptr %12, i32 0, i32 3
  %14 = getelementptr [1 x ptr], ptr %13, i64 0, i64 0
  %15 = icmp eq ptr %9, %14
  br i1 %15, label %16, label %45

16:                                               ; preds = %2
  call void @llvm.lifetime.start.p0(i64 8, ptr %6) #10
  %17 = load ptr, ptr %3, align 8, !tbaa !4
  %18 = getelementptr inbounds nuw %struct._ts, ptr %17, i32 0, i32 33
  %19 = load ptr, ptr %18, align 8, !tbaa !321
  store ptr %19, ptr %6, align 8, !tbaa !322
  call void @llvm.lifetime.start.p0(i64 8, ptr %7) #10
  %20 = load ptr, ptr %6, align 8, !tbaa !322
  %21 = getelementptr inbounds nuw %struct._stack_chunk, ptr %20, i32 0, i32 0
  %22 = load ptr, ptr %21, align 8, !tbaa !325
  store ptr %22, ptr %7, align 8, !tbaa !322
  %23 = load ptr, ptr %7, align 8, !tbaa !322
  %24 = getelementptr inbounds nuw %struct._stack_chunk, ptr %23, i32 0, i32 3
  %25 = load ptr, ptr %7, align 8, !tbaa !322
  %26 = getelementptr inbounds nuw %struct._stack_chunk, ptr %25, i32 0, i32 2
  %27 = load i64, ptr %26, align 8, !tbaa !323
  %28 = getelementptr [1 x ptr], ptr %24, i64 0, i64 %27
  %29 = load ptr, ptr %3, align 8, !tbaa !4
  %30 = getelementptr inbounds nuw %struct._ts, ptr %29, i32 0, i32 34
  store ptr %28, ptr %30, align 8, !tbaa !318
  %31 = load ptr, ptr %7, align 8, !tbaa !322
  %32 = load ptr, ptr %3, align 8, !tbaa !4
  %33 = getelementptr inbounds nuw %struct._ts, ptr %32, i32 0, i32 33
  store ptr %31, ptr %33, align 8, !tbaa !321
  %34 = load ptr, ptr %6, align 8, !tbaa !322
  %35 = load ptr, ptr %6, align 8, !tbaa !322
  %36 = getelementptr inbounds nuw %struct._stack_chunk, ptr %35, i32 0, i32 1
  %37 = load i64, ptr %36, align 8, !tbaa !326
  call void @_PyObject_VirtualFree(ptr noundef %34, i64 noundef %37)
  %38 = load ptr, ptr %7, align 8, !tbaa !322
  %39 = load ptr, ptr %7, align 8, !tbaa !322
  %40 = getelementptr inbounds nuw %struct._stack_chunk, ptr %39, i32 0, i32 1
  %41 = load i64, ptr %40, align 8, !tbaa !326
  %42 = getelementptr i8, ptr %38, i64 %41
  %43 = load ptr, ptr %3, align 8, !tbaa !4
  %44 = getelementptr inbounds nuw %struct._ts, ptr %43, i32 0, i32 35
  store ptr %42, ptr %44, align 8, !tbaa !319
  call void @llvm.lifetime.end.p0(i64 8, ptr %7) #10
  call void @llvm.lifetime.end.p0(i64 8, ptr %6) #10
  br label %49

45:                                               ; preds = %2
  %46 = load ptr, ptr %5, align 8, !tbaa !232
  %47 = load ptr, ptr %3, align 8, !tbaa !4
  %48 = getelementptr inbounds nuw %struct._ts, ptr %47, i32 0, i32 34
  store ptr %46, ptr %48, align 8, !tbaa !318
  br label %49

49:                                               ; preds = %45, %16
  call void @llvm.lifetime.end.p0(i64 8, ptr %5) #10
  ret void
}