; Function Attrs: nounwind uwtable
define dso_local void @_PyThreadState_PopFrame(ptr noundef captures(none) %0, ptr noundef %1) local_unnamed_addr #1 {
  %3 = getelementptr inbounds nuw i8, ptr %0, i64 232
  %4 = load ptr, ptr %3, align 8, !tbaa !281
  %5 = getelementptr inbounds nuw i8, ptr %4, i64 24
  %6 = icmp eq ptr %1, %5
  br i1 %6, label %7, label %19

7:                                                ; preds = %2
  %8 = load ptr, ptr %4, align 8, !tbaa !282
  %9 = getelementptr inbounds nuw i8, ptr %8, i64 24
  %10 = getelementptr inbounds nuw i8, ptr %8, i64 16
  %11 = load i64, ptr %10, align 8, !tbaa !314
  %12 = getelementptr [1 x ptr], ptr %9, i64 0, i64 %11
  %13 = getelementptr inbounds nuw i8, ptr %0, i64 240
  store ptr %12, ptr %13, align 8, !tbaa !311
  store ptr %8, ptr %3, align 8, !tbaa !281
  %14 = getelementptr inbounds nuw i8, ptr %4, i64 8
  %15 = load i64, ptr %14, align 8, !tbaa !284
  tail call void @_PyObject_VirtualFree(ptr noundef nonnull %4, i64 noundef %15) #16
  %16 = getelementptr inbounds nuw i8, ptr %8, i64 8
  %17 = load i64, ptr %16, align 8, !tbaa !284
  %18 = getelementptr i8, ptr %8, i64 %17
  br label %19

19:                                               ; preds = %2, %7
  %.sink18 = phi i64 [ 248, %7 ], [ 240, %2 ]
  %.sink = phi ptr [ %18, %7 ], [ %1, %2 ]
  %20 = getelementptr inbounds nuw i8, ptr %0, i64 %.sink18
  store ptr %.sink, ptr %20, align 8, !tbaa !315
  ret void
}